; ModuleID = '63/1330.c'
source_filename = "63/1330.c"
target datalayout = "e-m:e-p270:32:32-p271:32:32-p272:64:64-i64:64-f80:128-n8:16:32:64-S128"
target triple = "x86_64-pc-linux-gnu"

@.str = private unnamed_addr constant [6 x i8] c"%d %d\00", align 1
@.str.1 = private unnamed_addr constant [3 x i8] c"%d\00", align 1
@.str.2 = private unnamed_addr constant [4 x i8] c"%d \00", align 1
@.str.3 = private unnamed_addr constant [4 x i8] c"%d\0A\00", align 1

; Function Attrs: noinline nounwind uwtable
define dso_local i32 @main() #0 {
  %1 = alloca i32, align 4
  %2 = alloca i32, align 4
  %3 = alloca i32, align 4
  %4 = alloca i32, align 4
  %5 = alloca i32, align 4
  %6 = alloca [100 x [100 x i32]], align 16
  %7 = alloca i32, align 4
  %8 = alloca i32, align 4
  %9 = alloca [100 x [100 x i32]], align 16
  %10 = alloca i32, align 4
  %11 = alloca i32, align 4
  %12 = alloca [100 x [100 x i32]], align 16
  %13 = alloca i32, align 4
  %14 = alloca i32, align 4
  %15 = alloca i32, align 4
  %16 = alloca i32, align 4
  %17 = alloca i32, align 4
  store i32 0, i32* %1, align 4
  %18 = call i32 (i8*, ...) @__isoc99_scanf(i8* getelementptr inbounds ([6 x i8], [6 x i8]* @.str, i64 0, i64 0), i32* %2, i32* %4)
  store i32 0, i32* %7, align 4
  br label %19

19:                                               ; preds = %42, %0
  %20 = load i32, i32* %7, align 4
  %21 = load i32, i32* %2, align 4
  %22 = sub nsw i32 %21, 1
  %23 = icmp sle i32 %20, %22
  br i1 %23, label %24, label %45

24:                                               ; preds = %19
  store i32 0, i32* %8, align 4
  br label %25

25:                                               ; preds = %38, %24
  %26 = load i32, i32* %8, align 4
  %27 = load i32, i32* %4, align 4
  %28 = sub nsw i32 %27, 1
  %29 = icmp sle i32 %26, %28
  br i1 %29, label %30, label %41

30:                                               ; preds = %25
  %31 = load i32, i32* %7, align 4
  %32 = sext i32 %31 to i64
  %33 = getelementptr inbounds [100 x [100 x i32]], [100 x [100 x i32]]* %6, i64 0, i64 %32
  %34 = load i32, i32* %8, align 4
  %35 = sext i32 %34 to i64
  %36 = getelementptr inbounds [100 x i32], [100 x i32]* %33, i64 0, i64 %35
  %37 = call i32 (i8*, ...) @__isoc99_scanf(i8* getelementptr inbounds ([3 x i8], [3 x i8]* @.str.1, i64 0, i64 0), i32* %36)
  br label %38

38:                                               ; preds = %30
  %39 = load i32, i32* %8, align 4
  %40 = add nsw i32 %39, 1
  store i32 %40, i32* %8, align 4
  br label %25

41:                                               ; preds = %25
  br label %42

42:                                               ; preds = %41
  %43 = load i32, i32* %7, align 4
  %44 = add nsw i32 %43, 1
  store i32 %44, i32* %7, align 4
  br label %19

45:                                               ; preds = %19
  %46 = call i32 (i8*, ...) @__isoc99_scanf(i8* getelementptr inbounds ([6 x i8], [6 x i8]* @.str, i64 0, i64 0), i32* %3, i32* %5)
  store i32 0, i32* %10, align 4
  br label %47

47:                                               ; preds = %70, %45
  %48 = load i32, i32* %10, align 4
  %49 = load i32, i32* %3, align 4
  %50 = sub nsw i32 %49, 1
  %51 = icmp sle i32 %48, %50
  br i1 %51, label %52, label %73

52:                                               ; preds = %47
  store i32 0, i32* %11, align 4
  br label %53

53:                                               ; preds = %66, %52
  %54 = load i32, i32* %11, align 4
  %55 = load i32, i32* %5, align 4
  %56 = sub nsw i32 %55, 1
  %57 = icmp sle i32 %54, %56
  br i1 %57, label %58, label %69

58:                                               ; preds = %53
  %59 = load i32, i32* %10, align 4
  %60 = sext i32 %59 to i64
  %61 = getelementptr inbounds [100 x [100 x i32]], [100 x [100 x i32]]* %9, i64 0, i64 %60
  %62 = load i32, i32* %11, align 4
  %63 = sext i32 %62 to i64
  %64 = getelementptr inbounds [100 x i32], [100 x i32]* %61, i64 0, i64 %63
  %65 = call i32 (i8*, ...) @__isoc99_scanf(i8* getelementptr inbounds ([3 x i8], [3 x i8]* @.str.1, i64 0, i64 0), i32* %64)
  br label %66

66:                                               ; preds = %58
  %67 = load i32, i32* %11, align 4
  %68 = add nsw i32 %67, 1
  store i32 %68, i32* %11, align 4
  br label %53

69:                                               ; preds = %53
  br label %70

70:                                               ; preds = %69
  %71 = load i32, i32* %10, align 4
  %72 = add nsw i32 %71, 1
  store i32 %72, i32* %10, align 4
  br label %47

73:                                               ; preds = %47
  store i32 0, i32* %13, align 4
  br label %74

74:                                               ; preds = %135, %73
  %75 = load i32, i32* %13, align 4
  %76 = load i32, i32* %2, align 4
  %77 = sub nsw i32 %76, 1
  %78 = icmp sle i32 %75, %77
  br i1 %78, label %79, label %138

79:                                               ; preds = %74
  store i32 0, i32* %14, align 4
  br label %80

80:                                               ; preds = %131, %79
  %81 = load i32, i32* %14, align 4
  %82 = load i32, i32* %5, align 4
  %83 = sub nsw i32 %82, 1
  %84 = icmp sle i32 %81, %83
  br i1 %84, label %85, label %134

85:                                               ; preds = %80
  %86 = load i32, i32* %13, align 4
  %87 = sext i32 %86 to i64
  %88 = getelementptr inbounds [100 x [100 x i32]], [100 x [100 x i32]]* %12, i64 0, i64 %87
  %89 = load i32, i32* %14, align 4
  %90 = sext i32 %89 to i64
  %91 = getelementptr inbounds [100 x i32], [100 x i32]* %88, i64 0, i64 %90
  store i32 0, i32* %91, align 4
  store i32 0, i32* %15, align 4
  br label %92

92:                                               ; preds = %127, %85
  %93 = load i32, i32* %15, align 4
  %94 = load i32, i32* %3, align 4
  %95 = sub nsw i32 %94, 1
  %96 = icmp sle i32 %93, %95
  br i1 %96, label %97, label %130

97:                                               ; preds = %92
  %98 = load i32, i32* %13, align 4
  %99 = sext i32 %98 to i64
  %100 = getelementptr inbounds [100 x [100 x i32]], [100 x [100 x i32]]* %12, i64 0, i64 %99
  %101 = load i32, i32* %14, align 4
  %102 = sext i32 %101 to i64
  %103 = getelementptr inbounds [100 x i32], [100 x i32]* %100, i64 0, i64 %102
  %104 = load i32, i32* %103, align 4
  %105 = load i32, i32* %13, align 4
  %106 = sext i32 %105 to i64
  %107 = getelementptr inbounds [100 x [100 x i32]], [100 x [100 x i32]]* %6, i64 0, i64 %106
  %108 = load i32, i32* %15, align 4
  %109 = sext i32 %108 to i64
  %110 = getelementptr inbounds [100 x i32], [100 x i32]* %107, i64 0, i64 %109
  %111 = load i32, i32* %110, align 4
  %112 = load i32, i32* %15, align 4
  %113 = sext i32 %112 to i64
  %114 = getelementptr inbounds [100 x [100 x i32]], [100 x [100 x i32]]* %9, i64 0, i64 %113
  %115 = load i32, i32* %14, align 4
  %116 = sext i32 %115 to i64
  %117 = getelementptr inbounds [100 x i32], [100 x i32]* %114, i64 0, i64 %116
  %118 = load i32, i32* %117, align 4
  %119 = mul nsw i32 %111, %118
  %120 = add nsw i32 %104, %119
  %121 = load i32, i32* %13, align 4
  %122 = sext i32 %121 to i64
  %123 = getelementptr inbounds [100 x [100 x i32]], [100 x [100 x i32]]* %12, i64 0, i64 %122
  %124 = load i32, i32* %14, align 4
  %125 = sext i32 %124 to i64
  %126 = getelementptr inbounds [100 x i32], [100 x i32]* %123, i64 0, i64 %125
  store i32 %120, i32* %126, align 4
  br label %127

127:                                              ; preds = %97
  %128 = load i32, i32* %15, align 4
  %129 = add nsw i32 %128, 1
  store i32 %129, i32* %15, align 4
  br label %92

130:                                              ; preds = %92
  br label %131

131:                                              ; preds = %130
  %132 = load i32, i32* %14, align 4
  %133 = add nsw i32 %132, 1
  store i32 %133, i32* %14, align 4
  br label %80

134:                                              ; preds = %80
  br label %135

135:                                              ; preds = %134
  %136 = load i32, i32* %13, align 4
  %137 = add nsw i32 %136, 1
  store i32 %137, i32* %13, align 4
  br label %74

138:                                              ; preds = %74
  store i32 0, i32* %16, align 4
  br label %139

139:                                              ; preds = %172, %138
  %140 = load i32, i32* %16, align 4
  %141 = load i32, i32* %2, align 4
  %142 = sub nsw i32 %141, 1
  %143 = icmp sle i32 %140, %142
  br i1 %143, label %144, label %175

144:                                              ; preds = %139
  store i32 0, i32* %17, align 4
  br label %145

145:                                              ; preds = %159, %144
  %146 = load i32, i32* %17, align 4
  %147 = load i32, i32* %5, align 4
  %148 = sub nsw i32 %147, 2
  %149 = icmp sle i32 %146, %148
  br i1 %149, label %150, label %162

150:                                              ; preds = %145
  %151 = load i32, i32* %16, align 4
  %152 = sext i32 %151 to i64
  %153 = getelementptr inbounds [100 x [100 x i32]], [100 x [100 x i32]]* %12, i64 0, i64 %152
  %154 = load i32, i32* %17, align 4
  %155 = sext i32 %154 to i64
  %156 = getelementptr inbounds [100 x i32], [100 x i32]* %153, i64 0, i64 %155
  %157 = load i32, i32* %156, align 4
  %158 = call i32 (i8*, ...) @printf(i8* getelementptr inbounds ([4 x i8], [4 x i8]* @.str.2, i64 0, i64 0), i32 %157)
  br label %159

159:                                              ; preds = %150
  %160 = load i32, i32* %17, align 4
  %161 = add nsw i32 %160, 1
  store i32 %161, i32* %17, align 4
  br label %145

162:                                              ; preds = %145
  %163 = load i32, i32* %16, align 4
  %164 = sext i32 %163 to i64
  %165 = getelementptr inbounds [100 x [100 x i32]], [100 x [100 x i32]]* %12, i64 0, i64 %164
  %166 = load i32, i32* %5, align 4
  %167 = sub nsw i32 %166, 1
  %168 = sext i32 %167 to i64
  %169 = getelementptr inbounds [100 x i32], [100 x i32]* %165, i64 0, i64 %168
  %170 = load i32, i32* %169, align 4
  %171 = call i32 (i8*, ...) @printf(i8* getelementptr inbounds ([4 x i8], [4 x i8]* @.str.3, i64 0, i64 0), i32 %170)
  br label %172

172:                                              ; preds = %162
  %173 = load i32, i32* %16, align 4
  %174 = add nsw i32 %173, 1
  store i32 %174, i32* %16, align 4
  br label %139

175:                                              ; preds = %139
  ret i32 0
}

declare dso_local i32 @__isoc99_scanf(i8*, ...) #1

declare dso_local i32 @printf(i8*, ...) #1


!llvm.module.flags = !{!0}
!llvm.ident = !{!1}

!0 = !{i32 1, !"wchar_size", i32 4}
!1 = !{!"clang version 10.0.0-4ubuntu1 "}
